target datalayout = "e-m:e-p270:32:32-p271:32:32-p272:64:64-i64:64-i128:128-f80:128-n8:16:32:64-S128"
target triple = "x86_64-unknown-linux-gnu"

%class.vector.41 = type { ptr }
%class.vector = type { ptr }

; Function Attrs: mustprogress uwtable
define linkonce_odr hidden noundef nonnull align 8 dereferenceable(8) ptr @_ZN6vectorIbLb0EjE9push_backERKb(ptr noundef nonnull align 8 dereferenceable(8) %this, ptr noundef nonnull align 1 dereferenceable(1) %elem) #4 comdat align 2 {
entry:
  %this.addr = alloca ptr, align 8
  %elem.addr = alloca ptr, align 8
  store ptr %this, ptr %this.addr, align 8
  store ptr %elem, ptr %elem.addr, align 8
  %this1 = load ptr, ptr %this.addr, align 8
  %m_data = getelementptr inbounds %class.vector.41, ptr %this1, i32 0, i32 0
  %0 = load ptr, ptr %m_data, align 8
  %cmp = icmp eq ptr %0, null
  br i1 %cmp, label %if.then, label %lor.lhs.false

lor.lhs.false:                                    ; preds = %entry
  %m_data2 = getelementptr inbounds %class.vector.41, ptr %this1, i32 0, i32 0
  %1 = load ptr, ptr %m_data2, align 8
  %arrayidx = getelementptr inbounds i32, ptr %1, i64 -1
  %2 = load i32, ptr %arrayidx, align 4
  %m_data3 = getelementptr inbounds %class.vector.41, ptr %this1, i32 0, i32 0
  %3 = load ptr, ptr %m_data3, align 8
  %arrayidx4 = getelementptr inbounds i32, ptr %3, i64 -2
  %4 = load i32, ptr %arrayidx4, align 4
  %cmp5 = icmp eq i32 %2, %4
  br i1 %cmp5, label %if.then, label %if.end

if.then:                                          ; preds = %lor.lhs.false, %entry
  call void @_ZN6vectorIbLb0EjE13expand_vectorEv(ptr noundef nonnull align 8 dereferenceable(8) %this1)
  br label %if.end

if.end:                                           ; preds = %if.then, %lor.lhs.false
  %m_data6 = getelementptr inbounds %class.vector.41, ptr %this1, i32 0, i32 0
  %5 = load ptr, ptr %m_data6, align 8
  %m_data7 = getelementptr inbounds %class.vector.41, ptr %this1, i32 0, i32 0
  %6 = load ptr, ptr %m_data7, align 8
  %arrayidx8 = getelementptr inbounds i32, ptr %6, i64 -1
  %7 = load i32, ptr %arrayidx8, align 4
  %idx.ext = zext i32 %7 to i64
  %add.ptr = getelementptr inbounds i8, ptr %5, i64 %idx.ext
  %8 = load ptr, ptr %elem.addr, align 8
  %9 = load i8, ptr %8, align 1
  %tobool = trunc i8 %9 to i1
  %frombool = zext i1 %tobool to i8
  store i8 %frombool, ptr %add.ptr, align 1
  %m_data9 = getelementptr inbounds %class.vector.41, ptr %this1, i32 0, i32 0
  %10 = load ptr, ptr %m_data9, align 8
  %arrayidx10 = getelementptr inbounds i32, ptr %10, i64 -1
  %11 = load i32, ptr %arrayidx10, align 4
  %inc = add i32 %11, 1
  store i32 %inc, ptr %arrayidx10, align 4
  ret ptr %this1
}

; Function Attrs: mustprogress nounwind uwtable
define linkonce_odr hidden noundef nonnull align 8 dereferenceable(8) ptr @_ZNK6vectorIP4sortLb0EjEixEj(ptr noundef nonnull align 8 dereferenceable(8) %this, i32 noundef %idx) #5 comdat align 2 {
entry:
  %this.addr = alloca ptr, align 8
  %idx.addr = alloca i32, align 4
  store ptr %this, ptr %this.addr, align 8
  store i32 %idx, ptr %idx.addr, align 4
  %this1 = load ptr, ptr %this.addr, align 8
  %m_data = getelementptr inbounds %class.vector, ptr %this1, i32 0, i32 0
  %0 = load ptr, ptr %m_data, align 8
  %1 = load i32, ptr %idx.addr, align 4
  %idxprom = zext i32 %1 to i64
  %arrayidx = getelementptr inbounds ptr, ptr %0, i64 %idxprom
  ret ptr %arrayidx
}

; Function Attrs: mustprogress nounwind uwtable
define linkonce_odr hidden noundef i32 @_ZNK6vectorIP4sortLb0EjE4sizeEv(ptr noundef nonnull align 8 dereferenceable(8) %this) #5 comdat align 2 {
entry:
  %retval = alloca i32, align 4
  %this.addr = alloca ptr, align 8
  store ptr %this, ptr %this.addr, align 8
  %this1 = load ptr, ptr %this.addr, align 8
  %m_data = getelementptr inbounds %class.vector, ptr %this1, i32 0, i32 0
  %0 = load ptr, ptr %m_data, align 8
  %cmp = icmp eq ptr %0, null
  br i1 %cmp, label %if.then, label %if.end

if.then:                                          ; preds = %entry
  store i32 0, ptr %retval, align 4
  br label %return

if.end:                                           ; preds = %entry
  %m_data2 = getelementptr inbounds %class.vector, ptr %this1, i32 0, i32 0
  %1 = load ptr, ptr %m_data2, align 8
  %arrayidx = getelementptr inbounds i32, ptr %1, i64 -1
  %2 = load i32, ptr %arrayidx, align 4
  store i32 %2, ptr %retval, align 4
  br label %return

return:                                           ; preds = %if.end, %if.then
  %3 = load i32, ptr %retval, align 4
  ret i32 %3
}

; Function Attrs: mustprogress uwtable
define hidden void @_ZN7datalog30finite_product_relation_plugin30get_all_possible_table_columnsERNS_16relation_managerERKNS_18relation_signatureER7svectorIbjE(ptr noundef nonnull align 8 dereferenceable(200) %rmgr, ptr noundef nonnull align 8 dereferenceable(8) %s, ptr noundef nonnull align 8 dereferenceable(8) %table_columns) #4 align 2 {
entry:
  %rmgr.addr = alloca ptr, align 8
  %s.addr = alloca ptr, align 8
  %table_columns.addr = alloca ptr, align 8
  %s_sz = alloca i32, align 4
  %i = alloca i32, align 4
  %t_sort = alloca i64, align 8
  %can_be_table_column = alloca i8, align 1
  store ptr %rmgr, ptr %rmgr.addr, align 8
  store ptr %s, ptr %s.addr, align 8
  store ptr %table_columns, ptr %table_columns.addr, align 8
  %0 = load ptr, ptr %s.addr, align 8
  %call = call noundef i32 @_ZNK6vectorIP4sortLb0EjE4sizeEv(ptr noundef nonnull align 8 dereferenceable(8) %0)
  store i32 %call, ptr %s_sz, align 4
  store i32 0, ptr %i, align 4
  br label %for.cond

for.cond:                                         ; preds = %for.inc, %entry
  %1 = load i32, ptr %i, align 4
  %2 = load i32, ptr %s_sz, align 4
  %cmp = icmp ult i32 %1, %2
  br i1 %cmp, label %for.body, label %for.end

for.body:                                         ; preds = %for.cond
  %3 = load ptr, ptr %rmgr.addr, align 8
  %4 = load ptr, ptr %s.addr, align 8
  %5 = load i32, ptr %i, align 4
  %call1 = call noundef nonnull align 8 dereferenceable(8) ptr @_ZNK6vectorIP4sortLb0EjEixEj(ptr noundef nonnull align 8 dereferenceable(8) %4, i32 noundef %5)
  %call2 = call noundef zeroext i1 @_ZN7datalog16relation_manager22relation_sort_to_tableERKP4sortRm(ptr noundef nonnull align 8 dereferenceable(200) %3, ptr noundef nonnull align 8 dereferenceable(8) %call1, ptr noundef nonnull align 8 dereferenceable(8) %t_sort)
  %frombool = zext i1 %call2 to i8
  store i8 %frombool, ptr %can_be_table_column, align 1
  %6 = load ptr, ptr %table_columns.addr, align 8
  %call3 = call noundef nonnull align 8 dereferenceable(8) ptr @_ZN6vectorIbLb0EjE9push_backERKb(ptr noundef nonnull align 8 dereferenceable(8) %6, ptr noundef nonnull align 1 dereferenceable(1) %can_be_table_column)
  br label %for.inc

for.inc:                                          ; preds = %for.body
  %7 = load i32, ptr %i, align 4
  %inc = add i32 %7, 1
  store i32 %inc, ptr %i, align 4
  br label %for.cond, !llvm.loop !4

for.end:                                          ; preds = %for.cond
  ret void
}