; Function Attrs: mustprogress uwtable
define hidden void @_ZN7datalog30finite_product_relation_plugin30get_all_possible_table_columnsERNS_16relation_managerERKNS_18relation_signatureER7svectorIbjE(ptr noundef nonnull align 8 dereferenceable(200) %rmgr, ptr nocapture noundef nonnull readonly align 8 dereferenceable(8) %s, ptr noundef nonnull align 8 dereferenceable(8) %table_columns) local_unnamed_addr #3 align 2 {
entry:
  %t_sort = alloca i64, align 8
  %0 = load ptr, ptr %s, align 8
  %cmp.i = icmp eq ptr %0, null
  br i1 %cmp.i, label %for.end, label %_ZNK6vectorIP4sortLb0EjE4sizeEv.exit

_ZNK6vectorIP4sortLb0EjE4sizeEv.exit:             ; preds = %entry
  %arrayidx.i = getelementptr inbounds i8, ptr %0, i64 -4
  %1 = load i32, ptr %arrayidx.i, align 4
  %cmp8.not = icmp eq i32 %1, 0
  br i1 %cmp8.not, label %for.end, label %for.body.preheader

for.body.preheader:                               ; preds = %_ZNK6vectorIP4sortLb0EjE4sizeEv.exit
  %wide.trip.count = zext i32 %1 to i64
  br label %for.body

for.body:                                         ; preds = %for.body.preheader, %_ZN6vectorIbLb0EjE9push_backERKb.exit
  %indvars.iv = phi i64 [ 0, %for.body.preheader ], [ %indvars.iv.next, %_ZN6vectorIbLb0EjE9push_backERKb.exit ]
  %2 = load ptr, ptr %s, align 8
  %arrayidx.i4 = getelementptr inbounds ptr, ptr %2, i64 %indvars.iv
  %call2 = call noundef zeroext i1 @_ZN7datalog16relation_manager22relation_sort_to_tableERKP4sortRm(ptr noundef nonnull align 8 dereferenceable(200) %rmgr, ptr noundef nonnull align 8 dereferenceable(8) %arrayidx.i4, ptr noundef nonnull align 8 dereferenceable(8) %t_sort)
  %frombool = zext i1 %call2 to i8
  %3 = load ptr, ptr %table_columns, align 8
  %cmp.i5 = icmp eq ptr %3, null
  br i1 %cmp.i5, label %if.then.i, label %lor.lhs.false.i

lor.lhs.false.i:                                  ; preds = %for.body
  %arrayidx.i6 = getelementptr inbounds i8, ptr %3, i64 -4
  %4 = load i32, ptr %arrayidx.i6, align 4
  %arrayidx4.i = getelementptr inbounds i8, ptr %3, i64 -8
  %5 = load i32, ptr %arrayidx4.i, align 4
  %cmp5.i = icmp eq i32 %4, %5
  br i1 %cmp5.i, label %if.then.i, label %_ZN6vectorIbLb0EjE9push_backERKb.exit

if.then.i:                                        ; preds = %lor.lhs.false.i, %for.body
  call void @_ZN6vectorIbLb0EjE13expand_vectorEv(ptr noundef nonnull align 8 dereferenceable(8) %table_columns)
  %.pre.i = load ptr, ptr %table_columns, align 8
  %arrayidx8.phi.trans.insert.i = getelementptr inbounds i8, ptr %.pre.i, i64 -4
  %.pre1.i = load i32, ptr %arrayidx8.phi.trans.insert.i, align 4
  br label %_ZN6vectorIbLb0EjE9push_backERKb.exit

_ZN6vectorIbLb0EjE9push_backERKb.exit:            ; preds = %lor.lhs.false.i, %if.then.i
  %6 = phi i32 [ %.pre1.i, %if.then.i ], [ %4, %lor.lhs.false.i ]
  %7 = phi ptr [ %.pre.i, %if.then.i ], [ %3, %lor.lhs.false.i ]
  %idx.ext.i = zext i32 %6 to i64
  %add.ptr.i = getelementptr inbounds i8, ptr %7, i64 %idx.ext.i
  store i8 %frombool, ptr %add.ptr.i, align 1
  %8 = load ptr, ptr %table_columns, align 8
  %arrayidx10.i = getelementptr inbounds i8, ptr %8, i64 -4
  %9 = load i32, ptr %arrayidx10.i, align 4
  %inc.i = add i32 %9, 1
  store i32 %inc.i, ptr %arrayidx10.i, align 4
  %indvars.iv.next = add nuw nsw i64 %indvars.iv, 1
  %exitcond.not = icmp eq i64 %indvars.iv.next, %wide.trip.count
  br i1 %exitcond.not, label %for.end, label %for.body, !llvm.loop !11

for.end:                                          ; preds = %_ZN6vectorIbLb0EjE9push_backERKb.exit, %entry, %_ZNK6vectorIP4sortLb0EjE4sizeEv.exit
  ret void
}